; Function Attrs: mustprogress uwtable
define noundef signext i8 @_ZN6icu_7512PreparsedUCD19parseCodePointRangeEPKcRiS3_R10UErrorCode(ptr nocapture noundef nonnull readonly align 8 dereferenceable(14640) %this, ptr noundef %s, ptr nocapture noundef nonnull writeonly align 4 dereferenceable(4) %start, ptr nocapture noundef nonnull writeonly align 4 dereferenceable(4) %end, ptr noundef nonnull align 4 dereferenceable(4) %errorCode) local_unnamed_addr #1 align 2 {
entry:
  %st = alloca i32, align 4
  %e = alloca i32, align 4
  %call = call i32 @u_parseCodePointRange(ptr noundef %s, ptr noundef nonnull %st, ptr noundef nonnull %e, ptr noundef nonnull %errorCode)
  %0 = load i32, ptr %errorCode, align 4
  %cmp.i = icmp slt i32 %0, 1
  br i1 %cmp.i, label %if.end, label %if.then

if.then:                                          ; preds = %entry
  %1 = load ptr, ptr @stderr, align 8
  %lineNumber = getelementptr inbounds i8, ptr %this, i64 28
  %2 = load i32, ptr %lineNumber, align 4
  %conv = sext i32 %2 to i64
  %call3 = call i32 (ptr, ptr, ...) @fprintf(ptr noundef %1, ptr noundef nonnull @.str.20, ptr noundef %s, i64 noundef %conv) #24
  br label %return

if.end:                                           ; preds = %entry
  %3 = load i32, ptr %st, align 4
  store i32 %3, ptr %start, align 4
  %4 = load i32, ptr %e, align 4
  store i32 %4, ptr %end, align 4
  br label %return

return:                                           ; preds = %if.end, %if.then
  %retval.0 = phi i8 [ 0, %if.then ], [ 1, %if.end ]
  ret i8 %retval.0
}